target datalayout = "e-m:e-p270:32:32-p271:32:32-p272:64:64-i64:64-i128:128-f80:128-n8:16:32:64-S128"
target triple = "x86_64-pc-linux-gnu"

%struct.Gia_Man_t_ = type { ptr, ptr, i32, i32, i32, i32, ptr, ptr, i32, i32, i32, ptr, ptr, %struct.Vec_Int_t_, %struct.Vec_Int_t_, i32, i32, i32, %struct.Vec_Int_t_, ptr, ptr, ptr, i32, i32, i32, i32, ptr, ptr, ptr, ptr, ptr, i32, i32, ptr, i32, ptr, ptr, ptr, ptr, ptr, ptr, ptr, ptr, ptr, ptr, ptr, ptr, ptr, ptr, ptr, ptr, ptr, ptr, %struct.Vec_Int_t_, %struct.Vec_Int_t_, ptr, ptr, ptr, ptr, ptr, ptr, ptr, ptr, ptr, ptr, ptr, ptr, ptr, ptr, ptr, ptr, ptr, ptr, ptr, ptr, ptr, i32, float, float, ptr, ptr, i32, ptr, ptr, ptr, ptr, ptr, ptr, ptr, ptr, ptr, ptr, ptr, ptr, ptr, ptr, ptr, i64, i64, ptr, ptr, i32, i32, i32, i32, i32, i32, i32, i32, i32, i32, i32, i32, ptr, ptr, ptr, ptr, ptr, ptr, ptr, ptr, i32, i32, i32, ptr, i32, i32, ptr, ptr, ptr, ptr, ptr, ptr, i32, i32, ptr, %struct.Vec_Int_t_, %struct.Vec_Int_t_, %struct.Vec_Int_t_, ptr, ptr, ptr, i32, i32, i32, i32, ptr, ptr, ptr, ptr, ptr }
%struct.Vec_Int_t_ = type { i32, i32, ptr }
%struct.Vec_Wrd_t_ = type { i32, i32, ptr }

; Function Attrs: inlinehint nounwind uwtable
define internal ptr @Vec_WrdEntryP(ptr noundef %0, i32 noundef %1) #2 {
  %3 = alloca ptr, align 8
  %4 = alloca i32, align 4
  store ptr %0, ptr %3, align 8, !tbaa !44
  store i32 %1, ptr %4, align 4, !tbaa !8
  %5 = load ptr, ptr %3, align 8, !tbaa !44
  %6 = getelementptr inbounds nuw %struct.Vec_Wrd_t_, ptr %5, i32 0, i32 2
  %7 = load ptr, ptr %6, align 8, !tbaa !48
  %8 = load i32, ptr %4, align 4, !tbaa !8
  %9 = sext i32 %8 to i64
  %10 = getelementptr inbounds i64, ptr %7, i64 %9
  ret ptr %10
}

; Function Attrs: inlinehint nounwind uwtable
define internal void @Abc_TtSetBit(ptr noundef %0, i32 noundef %1) #2 {
  %3 = alloca ptr, align 8
  %4 = alloca i32, align 4
  store ptr %0, ptr %3, align 8, !tbaa !33
  store i32 %1, ptr %4, align 4, !tbaa !8
  %5 = load i32, ptr %4, align 4, !tbaa !8
  %6 = and i32 %5, 63
  %7 = zext i32 %6 to i64
  %8 = shl i64 1, %7
  %9 = load ptr, ptr %3, align 8, !tbaa !33
  %10 = load i32, ptr %4, align 4, !tbaa !8
  %11 = ashr i32 %10, 6
  %12 = sext i32 %11 to i64
  %13 = getelementptr inbounds i64, ptr %9, i64 %12
  %14 = load i64, ptr %13, align 8, !tbaa !42
  %15 = or i64 %14, %8
  store i64 %15, ptr %13, align 8, !tbaa !42
  ret void
}

; Function Attrs: inlinehint nounwind uwtable
define internal i32 @Vec_IntEntry(ptr noundef %0, i32 noundef %1) #2 {
  %3 = alloca ptr, align 8
  %4 = alloca i32, align 4
  store ptr %0, ptr %3, align 8, !tbaa !39
  store i32 %1, ptr %4, align 4, !tbaa !8
  %5 = load ptr, ptr %3, align 8, !tbaa !39
  %6 = getelementptr inbounds nuw %struct.Vec_Int_t_, ptr %5, i32 0, i32 2
  %7 = load ptr, ptr %6, align 8, !tbaa !41
  %8 = load i32, ptr %4, align 4, !tbaa !8
  %9 = sext i32 %8 to i64
  %10 = getelementptr inbounds i32, ptr %7, i64 %9
  %11 = load i32, ptr %10, align 4, !tbaa !8
  ret i32 %11
}

; Function Attrs: inlinehint nounwind uwtable
define internal i32 @Vec_IntSize(ptr noundef %0) #2 {
  %2 = alloca ptr, align 8
  store ptr %0, ptr %2, align 8, !tbaa !39
  %3 = load ptr, ptr %2, align 8, !tbaa !39
  %4 = getelementptr inbounds nuw %struct.Vec_Int_t_, ptr %3, i32 0, i32 1
  %5 = load i32, ptr %4, align 4, !tbaa !40
  ret i32 %5
}

; Function Attrs: inlinehint nounwind uwtable
define internal void @Abc_TtClear(ptr noundef %0, i32 noundef %1) #2 {
  %3 = alloca ptr, align 8
  %4 = alloca i32, align 4
  %5 = alloca i32, align 4
  store ptr %0, ptr %3, align 8, !tbaa !33
  store i32 %1, ptr %4, align 4, !tbaa !8
  call void @llvm.lifetime.start.p0(i64 4, ptr %5) #9
  store i32 0, ptr %5, align 4, !tbaa !8
  br label %6

6:                                                ; preds = %15, %2
  %7 = load i32, ptr %5, align 4, !tbaa !8
  %8 = load i32, ptr %4, align 4, !tbaa !8
  %9 = icmp slt i32 %7, %8
  br i1 %9, label %10, label %18

10:                                               ; preds = %6
  %11 = load ptr, ptr %3, align 8, !tbaa !33
  %12 = load i32, ptr %5, align 4, !tbaa !8
  %13 = sext i32 %12 to i64
  %14 = getelementptr inbounds i64, ptr %11, i64 %13
  store i64 0, ptr %14, align 8, !tbaa !42
  br label %15

15:                                               ; preds = %10
  %16 = load i32, ptr %5, align 4, !tbaa !8
  %17 = add nsw i32 %16, 1
  store i32 %17, ptr %5, align 4, !tbaa !8
  br label %6, !llvm.loop !58

18:                                               ; preds = %6
  call void @llvm.lifetime.end.p0(i64 4, ptr %5) #9
  ret void
}

; Function Attrs: inlinehint nounwind uwtable
define internal ptr @Gia_ManQuantInfoId(ptr noundef %0, i32 noundef %1) #2 {
  %3 = alloca ptr, align 8
  %4 = alloca i32, align 4
  store ptr %0, ptr %3, align 8, !tbaa !3
  store i32 %1, ptr %4, align 4, !tbaa !8
  %5 = load ptr, ptr %3, align 8, !tbaa !3
  %6 = getelementptr inbounds nuw %struct.Gia_Man_t_, ptr %5, i32 0, i32 135
  %7 = load ptr, ptr %6, align 8, !tbaa !37
  %8 = load ptr, ptr %3, align 8, !tbaa !3
  %9 = getelementptr inbounds nuw %struct.Gia_Man_t_, ptr %8, i32 0, i32 134
  %10 = load i32, ptr %9, align 4, !tbaa !38
  %11 = load i32, ptr %4, align 4, !tbaa !8
  %12 = mul nsw i32 %10, %11
  %13 = call ptr @Vec_WrdEntryP(ptr noundef %7, i32 noundef %12)
  ret ptr %13
}

; Function Attrs: nounwind uwtable
define void @Gia_ManQuantMarkUsedCis(ptr noundef %0, ptr noundef %1, ptr noundef %2) #0 {
  %4 = alloca ptr, align 8
  %5 = alloca ptr, align 8
  %6 = alloca ptr, align 8
  %7 = alloca i32, align 4
  %8 = alloca i32, align 4
  %9 = alloca ptr, align 8
  store ptr %0, ptr %4, align 8, !tbaa !3
  store ptr %1, ptr %5, align 8, !tbaa !56
  store ptr %2, ptr %6, align 8, !tbaa !56
  call void @llvm.lifetime.start.p0(i64 4, ptr %7) #9
  call void @llvm.lifetime.start.p0(i64 4, ptr %8) #9
  call void @llvm.lifetime.start.p0(i64 8, ptr %9) #9
  %10 = load ptr, ptr %4, align 8, !tbaa !3
  %11 = call ptr @Gia_ManQuantInfoId(ptr noundef %10, i32 noundef 0)
  store ptr %11, ptr %9, align 8, !tbaa !33
  %12 = load ptr, ptr %9, align 8, !tbaa !33
  %13 = load ptr, ptr %4, align 8, !tbaa !3
  %14 = getelementptr inbounds nuw %struct.Gia_Man_t_, ptr %13, i32 0, i32 134
  %15 = load i32, ptr %14, align 4, !tbaa !38
  call void @Abc_TtClear(ptr noundef %12, i32 noundef %15)
  store i32 0, ptr %7, align 4, !tbaa !8
  br label %16

16:                                               ; preds = %39, %3
  %17 = load i32, ptr %7, align 4, !tbaa !8
  %18 = load ptr, ptr %4, align 8, !tbaa !3
  %19 = getelementptr inbounds nuw %struct.Gia_Man_t_, ptr %18, i32 0, i32 137
  %20 = call i32 @Vec_IntSize(ptr noundef %19)
  %21 = icmp slt i32 %17, %20
  br i1 %21, label %22, label %27

22:                                               ; preds = %16
  %23 = load ptr, ptr %4, align 8, !tbaa !3
  %24 = getelementptr inbounds nuw %struct.Gia_Man_t_, ptr %23, i32 0, i32 137
  %25 = load i32, ptr %7, align 4, !tbaa !8
  %26 = call i32 @Vec_IntEntry(ptr noundef %24, i32 noundef %25)
  store i32 %26, ptr %8, align 4, !tbaa !8
  br label %27

27:                                               ; preds = %22, %16
  %28 = phi i1 [ false, %16 ], [ true, %22 ]
  br i1 %28, label %29, label %42

29:                                               ; preds = %27
  %30 = load ptr, ptr %5, align 8, !tbaa !56
  %31 = load ptr, ptr %6, align 8, !tbaa !56
  %32 = load i32, ptr %8, align 4, !tbaa !8
  %33 = call i32 %30(ptr noundef %31, i32 noundef %32)
  %34 = icmp ne i32 %33, 0
  br i1 %34, label %38, label %35

35:                                               ; preds = %29
  %36 = load ptr, ptr %9, align 8, !tbaa !33
  %37 = load i32, ptr %7, align 4, !tbaa !8
  call void @Abc_TtSetBit(ptr noundef %36, i32 noundef %37)
  br label %38

38:                                               ; preds = %35, %29
  br label %39

39:                                               ; preds = %38
  %40 = load i32, ptr %7, align 4, !tbaa !8
  %41 = add nsw i32 %40, 1
  store i32 %41, ptr %7, align 4, !tbaa !8
  br label %16, !llvm.loop !57

42:                                               ; preds = %27
  call void @llvm.lifetime.end.p0(i64 8, ptr %9) #9
  call void @llvm.lifetime.end.p0(i64 4, ptr %8) #9
  call void @llvm.lifetime.end.p0(i64 4, ptr %7) #9
  ret void
}