; Function Attrs: nounwind uwtable
define void @Gia_ManQuantMarkUsedCis(ptr noundef readonly captures(none) %0, ptr noundef readonly captures(none) %1, ptr noundef %2) local_unnamed_addr #2 {
  %4 = getelementptr i8, ptr %0, i64 980
  %5 = getelementptr i8, ptr %0, i64 984
  %.val12 = load ptr, ptr %5, align 8, !tbaa !32
  %6 = getelementptr i8, ptr %.val12, i64 8
  %.val12.val = load ptr, ptr %6, align 8, !tbaa !33
  %7 = load i32, ptr %4, align 4, !tbaa !31
  %8 = icmp sgt i32 %7, 0
  br i1 %8, label %.lr.ph.preheader.i, label %Abc_TtClear.exit

.lr.ph.preheader.i:                               ; preds = %3
  %9 = zext nneg i32 %7 to i64
  %10 = shl nuw nsw i64 %9, 3
  tail call void @llvm.memset.p0.i64(ptr align 8 %.val12.val, i8 0, i64 %10, i1 false), !tbaa !38
  br label %Abc_TtClear.exit

Abc_TtClear.exit:                                 ; preds = %3, %.lr.ph.preheader.i
  %11 = getelementptr i8, ptr %0, i64 1012
  %.val1315 = load i32, ptr %11, align 4, !tbaa !36
  %12 = icmp sgt i32 %.val1315, 0
  br i1 %12, label %.lr.ph, label %.critedge

.lr.ph:                                           ; preds = %Abc_TtClear.exit
  %13 = getelementptr i8, ptr %0, i64 1016
  br label %14

14:                                               ; preds = %.lr.ph, %26
  %indvars.iv = phi i64 [ 0, %.lr.ph ], [ %indvars.iv.next, %26 ]
  %.val14 = load ptr, ptr %13, align 8, !tbaa !37
  %15 = getelementptr inbounds nuw i32, ptr %.val14, i64 %indvars.iv
  %16 = load i32, ptr %15, align 4, !tbaa !29
  %17 = tail call i32 %1(ptr noundef %2, i32 noundef %16) #17
  %.not = icmp eq i32 %17, 0
  br i1 %.not, label %18, label %26

18:                                               ; preds = %14
  %19 = and i64 %indvars.iv, 63
  %20 = shl nuw i64 1, %19
  %21 = lshr i64 %indvars.iv, 6
  %22 = and i64 %21, 67108863
  %23 = getelementptr inbounds nuw i64, ptr %.val12.val, i64 %22
  %24 = load i64, ptr %23, align 8, !tbaa !38
  %25 = or i64 %24, %20
  store i64 %25, ptr %23, align 8, !tbaa !38
  br label %26

26:                                               ; preds = %14, %18
  %indvars.iv.next = add nuw nsw i64 %indvars.iv, 1
  %.val13 = load i32, ptr %11, align 4, !tbaa !36
  %27 = sext i32 %.val13 to i64
  %28 = icmp slt i64 %indvars.iv.next, %27
  br i1 %28, label %14, label %.critedge, !llvm.loop !50

.critedge:                                        ; preds = %26, %Abc_TtClear.exit
  ret void
}